Certificate:
    Data:
        Version: 3 (0x2)
        Serial Number: 2 (0x2)
    Signature Algorithm: sha1WithRSAEncryption
        Issuer: C=CH, ST=China, L=SH, O=webos, OU=webos, CN=webos.ddns.net/emailAddress=yj@webos.net
        Validity
            Not Before: Aug 26 07:43:36 2014 GMT
            Not After : Aug 26 07:43:36 2015 GMT
        Subject: C=CH, ST=China, O=webos, OU=webos, CN=webos.ddns.net/emailAddress=yj@webos.net
        Subject Public Key Info:
            Public Key Algorithm: rsaEncryption
                Public-Key: (1024 bit)
                Modulus:
                    00:cb:08:10:9b:6e:50:a2:03:2c:02:6b:57:5c:e8:
                    20:2f:b0:b3:4b:c7:90:5b:e6:6e:38:dc:c2:e1:08:
                    43:9d:4a:fe:a5:45:53:b1:4f:e5:88:94:3b:bd:45:
                    ab:13:6d:7b:0f:bb:5c:c5:9b:f0:6d:d2:8a:03:28:
                    ce:ab:13:de:1e:01:50:6c:77:d5:6b:82:83:f9:50:
                    de:f5:0a:4d:62:19:6b:d0:8a:e1:e1:c3:61:a0:eb:
                    c9:19:37:18:e7:d5:4a:de:fe:d5:63:e6:08:b5:e2:
                    02:cc:d5:4d:37:c0:61:0b:ab:23:0d:f8:82:57:29:
                    72:1f:49:f2:18:84:7c:42:f5
                Exponent: 65537 (0x10001)
        X509v3 extensions:
            X509v3 Basic Constraints: 
                CA:FALSE
            Netscape Comment: 
                OpenSSL Generated Certificate
            X509v3 Subject Key Identifier: 
                14:E8:8A:10:12:94:9B:5A:0C:30:42:76:D4:7D:8F:7D:FC:AA:D9:07
            X509v3 Authority Key Identifier: 
                keyid:9B:08:B2:98:16:C1:41:45:BA:EB:84:A4:9A:21:9F:25:5C:DD:AC:2B

    Signature Algorithm: sha1WithRSAEncryption
         a3:29:00:05:ab:b4:96:dd:28:88:19:d5:8c:00:a0:bb:18:d3:
         e4:bf:6c:0b:42:66:e4:22:12:2b:a1:ec:a6:98:dc:d8:09:25:
         01:26:cd:ed:29:b6:52:8f:c4:77:b8:b9:00:7d:de:ce:a9:33:
         b8:55:db:04:0a:52:97:3a:b9:87:fb:28:49:dc:db:af:92:1d:
         48:7c:d2:61:58:4f:64:43:f7:b3:20:cb:23:84:82:15:8f:a3:
         d9:7f:8f:de:a3:64:a1:54:10:54:86:f1:c1:d5:cc:a7:d7:88:
         0f:63:0a:60:43:0e:fc:f1:3c:46:11:67:ec:f1:95:b1:74:6b:
         cf:2a
-----BEGIN CERTIFICATE-----
MIIC5TCCAk6gAwIBAgIBAjANBgkqhkiG9w0BAQUFADCBgDELMAkGA1UEBhMCQ0gx
DjAMBgNVBAgMBUNoaW5hMQswCQYDVQQHDAJTSDEOMAwGA1UECgwFd2Vib3MxDjAM
BgNVBAsMBXdlYm9zMRcwFQYDVQQDDA53ZWJvcy5kZG5zLm5ldDEbMBkGCSqGSIb3
DQEJARYMeWpAd2Vib3MubmV0MB4XDTE0MDgyNjA3NDMzNloXDTE1MDgyNjA3NDMz
NlowczELMAkGA1UEBhMCQ0gxDjAMBgNVBAgMBUNoaW5hMQ4wDAYDVQQKDAV3ZWJv
czEOMAwGA1UECwwFd2Vib3MxFzAVBgNVBAMMDndlYm9zLmRkbnMubmV0MRswGQYJ
KoZIhvcNAQkBFgx5akB3ZWJvcy5uZXQwgZ8wDQYJKoZIhvcNAQEBBQADgY0AMIGJ
AoGBAMsIEJtuUKIDLAJrV1zoIC+ws0vHkFvmbjjcwuEIQ51K/qVFU7FP5YiUO71F
qxNtew+7XMWb8G3SigMozqsT3h4BUGx31WuCg/lQ3vUKTWIZa9CK4eHDYaDryRk3
GOfVSt7+1WPmCLXiAszVTTfAYQurIw34glcpch9J8hiEfEL1AgMBAAGjezB5MAkG
A1UdEwQCMAAwLAYJYIZIAYb4QgENBB8WHU9wZW5TU0wgR2VuZXJhdGVkIENlcnRp
ZmljYXRlMB0GA1UdDgQWBBQU6IoQEpSbWgwwQnbUfY99/KrZBzAfBgNVHSMEGDAW
gBSbCLKYFsFBRbrrhKSaIZ8lXN2sKzANBgkqhkiG9w0BAQUFAAOBgQCjKQAFq7SW
3SiIGdWMAKC7GNPkv2wLQmbkIhIroeymmNzYCSUBJs3tKbZSj8R3uLkAfd7OqTO4
VdsEClKXOrmH+yhJ3Nuvkh1IfNJhWE9kQ/ezIMsjhIIVj6PZf4/eo2ShVBBUhvHB
1cyn14gPYwpgQw788TxGEWfs8ZWxdGvPKg==
-----END CERTIFICATE-----
